; Function Attrs: mustprogress uwtable
define i32 @Z3_get_func_decl_id(ptr noundef %c, ptr noundef %f) local_unnamed_addr #3 personality ptr @__gxx_personality_v0 {
entry:
  %0 = atomicrmw xchg ptr @g_z3_log_enabled, i8 0 seq_cst, align 1
  %1 = and i8 %0, 1
  %tobool.i.not = icmp eq i8 %1, 0
  br i1 %tobool.i.not, label %if.end.thread, label %if.then

if.end.thread:                                    ; preds = %entry
  %m_error_code.i8 = getelementptr inbounds i8, ptr %c, i64 1560
  store i32 0, ptr %m_error_code.i8, align 8
  %2 = load i32, ptr %f, align 4
  br label %_ZN10z3_log_ctxD2Ev.exit5

if.then:                                          ; preds = %entry
  invoke void @_Z23log_Z3_get_func_decl_idP11_Z3_contextP13_Z3_func_decl(ptr noundef %c, ptr noundef %f)
          to label %if.then.i4 unwind label %_ZN10z3_log_ctxD2Ev.exit

_ZN10z3_log_ctxD2Ev.exit:                         ; preds = %if.then
  %3 = landingpad { ptr, i32 }
          cleanup
  store atomic i8 1, ptr @g_z3_log_enabled seq_cst, align 1
  resume { ptr, i32 } %3

if.then.i4:                                       ; preds = %if.then
  %m_error_code.i = getelementptr inbounds i8, ptr %c, i64 1560
  store i32 0, ptr %m_error_code.i, align 8
  %4 = load i32, ptr %f, align 4
  store atomic i8 1, ptr @g_z3_log_enabled seq_cst, align 1
  br label %_ZN10z3_log_ctxD2Ev.exit5

_ZN10z3_log_ctxD2Ev.exit5:                        ; preds = %if.end.thread, %if.then.i4
  %5 = phi i32 [ %2, %if.end.thread ], [ %4, %if.then.i4 ]
  ret i32 %5
}